(dp0
I1
S'538150964'
p1
sI2
S'152166668'
p2
sI3
S'0'
p3
sI4
S'694332891'
p4
sI5
S'155421153'
p5
sI6
S'581076261'
p6
sI7
S'733072127'
p7
sI8
S'16443475'
p8
sI9
S'721180225'
p9
sI10
S'717062076'
p10
sI11
S'378382847'
p11
sI12
S'708678751'
p12
sI13
S'167802162'
p13
sI14
S'675236880'
p14
sI15
S'151988359'
p15
sI16
S'693675767'
p16
sI17
S'361526361'
p17
sI18
S'0'
p18
sI19
S'3769768'
p19
sI20
S'6017276'
p20
sI21
S'3634764'
p21
sI22
S'5018098'
p22
sI23
S'6483342'
p23
sI24
S'14355617'
p24
sI25
S'162444764'
p25
sI26
S'721450524'
p26
sI27
S'1564345799'
p27
sI28
S'718243745'
p28
sI29
S'0'
p29
sI30
g29
sI31
S'140205092'
p30
sI32
g29
s.