(dp0
I1
S'538078482'
p1
sI2
S'152147929'
p2
sI3
S'0'
p3
sI4
S'694474867'
p4
sI5
S'155367292'
p5
sI6
S'574760883'
p6
sI7
S'732812797'
p7
sI8
S'16445628'
p8
sI9
S'721069176'
p9
sI10
S'716954907'
p10
sI11
S'378543236'
p11
sI12
S'708319426'
p12
sI13
S'173359447'
p13
sI14
S'675020066'
p14
sI15
S'151935438'
p15
sI16
S'693443163'
p16
sI17
S'361361787'
p17
sI18
S'0'
p18
sI19
S'404325495'
p19
sI20
S'208871599'
p20
sI21
S'624958110'
p21
sI22
S'601557585'
p22
sI23
S'470611810'
p23
sI24
S'4363881'
p24
sI25
g18
sI26
S'721452646'
p25
sI27
S'1571054005'
p26
sI28
S'10522793'
p27
sI29
S'27650101'
p28
sI30
S'5120862'
p29
sI31
S'8019637'
p30
sI32
S'0'
p31
s.