(dp0
I1
S'156834697'
p1
sI2
I67
sI3
I67
sI4
I67
sI5
I67
sI6
I67
sI7
I67
sI8
I67
sI9
I67
sI10
I67
sI11
I67
sI12
I67
sI13
I67
sI14
I67
sI15
I67
sI16
I67
sI17
I67
sI18
I67
sI19
I67
sI20
I67
sI21
I67
sI22
I67
sI23
I67
sI24
I67
sI25
I67
sI26
I67
sI27
I67
sI28
I67
sI29
I67
sI30
I67
sI31
I67
sI32
I67
s.