(dp0
I1
S'0'
p1
sI2
S'1082890758'
p2
sI3
S'1046377001'
p3
sI4
S'1317302263'
p4
sI5
S'648848782'
p5
sI6
S'1065161274'
p6
sI7
S'1380889492'
p7
sI8
S'37029715'
p8
sI9
S'1382842624'
p9
sI10
S'1343738835'
p10
sI11
S'607256214'
p11
sI12
S'1334851290'
p12
sI13
S'357602478'
p13
sI14
S'1279736537'
p14
sI15
S'282414136'
p15
sI16
S'1336000775'
p16
sI17
S'685183310'
p17
sI18
g1
sI19
S'7200992'
p18
sI20
S'8310887'
p19
sI21
S'6305084'
p20
sI22
S'12060065'
p21
sI23
S'11237180'
p22
sI24
S'24016717'
p23
sI25
S'299659426'
p24
sI26
S'1648149956'
p25
sI27
S'2923376973'
p26
sI28
S'1365816655'
p27
sI29
S'13099088'
p28
sI30
S'0'
p29
sI31
g1
sI32
g1
s.