(dp0
I1
S'0'
p1
sI2
S'156266747'
p2
sI3
S'307351456'
p3
sI4
S'390939485'
p4
sI5
S'92968961'
p5
sI6
S'313909802'
p6
sI7
S'405399244'
p7
sI8
S'12983071'
p8
sI9
S'407800972'
p9
sI10
S'403193321'
p10
sI11
S'178627482'
p11
sI12
S'393794702'
p12
sI13
S'106910631'
p13
sI14
S'374428828'
p14
sI15
S'81254053'
p15
sI16
S'394699825'
p16
sI17
S'201346707'
p17
sI18
g1
sI19
S'228425469'
p18
sI20
S'57730817'
p19
sI21
S'268474497'
p20
sI22
S'154931544'
p21
sI23
S'260142646'
p22
sI24
S'2520690'
p23
sI25
g1
sI26
S'475008285'
p24
sI27
S'852115171'
p25
sI28
S'5027234'
p26
sI29
S'15615081'
p27
sI30
S'2273962'
p28
sI31
S'2522014'
p29
sI32
S'0'
p30
s.