(dp0
I1
S'0'
p1
sI2
g1
sI3
S'0'
p2
sI4
g1
sI5
S'0'
p3
sI6
g1
sI7
g1
sI8
S'0'
p4
sI9
g1
sI10
g1
sI11
g1
sI12
g1
sI13
g1
sI14
g1
sI15
g1
sI16
g1
sI17
g1
sI18
S'0'
p5
sI19
g1
sI20
g1
sI21
g1
sI22
g1
sI23
g1
sI24
g1
sI25
g1
sI26
S'0'
p6
sI27
g1
sI28
g1
sI29
S'2484981864'
p7
sI30
S'1103370804'
p8
sI31
S'51846864'
p9
sI32
S'44078712'
p10
s.