(dp0
I1
S'0'
p1
sI2
S'0'
p2
sI3
S'0'
p3
sI4
g3
sI5
g3
sI6
g3
sI7
g3
sI8
S'0'
p4
sI9
g3
sI10
g3
sI11
S'0'
p5
sI12
g3
sI13
g3
sI14
g3
sI15
g3
sI16
g3
sI17
g3
sI18
g1
sI19
g3
sI20
g3
sI21
g3
sI22
g3
sI23
g3
sI24
g3
sI25
g3
sI26
g3
sI27
g3
sI28
g3
sI29
S'0'
p6
sI30
S'1754599826'
p7
sI31
g1
sI32
g1
s.